target datalayout = "e-m:e-p270:32:32-p271:32:32-p272:64:64-i64:64-i128:128-f80:128-n8:16:32:64-S128"
target triple = "x86_64-pc-linux-gnu"

; Function Attrs: nounwind uwtable
define i32 @lv_image_src_get_type(ptr noundef %0) #0 {
  %2 = alloca i32, align 4
  %3 = alloca ptr, align 8
  %4 = alloca ptr, align 8
  %5 = alloca i32, align 4
  store ptr %0, ptr %3, align 8, !tbaa !3
  %6 = load ptr, ptr %3, align 8, !tbaa !3
  %7 = icmp eq ptr %6, null
  br i1 %7, label %8, label %9

8:                                                ; preds = %1
  store i32 3, ptr %2, align 4
  br label %32

9:                                                ; preds = %1
  call void @llvm.lifetime.start.p0(i64 8, ptr %4) #5
  %10 = load ptr, ptr %3, align 8, !tbaa !3
  store ptr %10, ptr %4, align 8, !tbaa !3
  %11 = load ptr, ptr %4, align 8, !tbaa !3
  %12 = getelementptr inbounds i8, ptr %11, i64 0
  %13 = load i8, ptr %12, align 1, !tbaa !8
  %14 = zext i8 %13 to i32
  %15 = icmp sge i32 %14, 32
  br i1 %15, label %16, label %23

16:                                               ; preds = %9
  %17 = load ptr, ptr %4, align 8, !tbaa !3
  %18 = getelementptr inbounds i8, ptr %17, i64 0
  %19 = load i8, ptr %18, align 1, !tbaa !8
  %20 = zext i8 %19 to i32
  %21 = icmp sle i32 %20, 127
  br i1 %21, label %22, label %23

22:                                               ; preds = %16
  store i32 1, ptr %2, align 4
  store i32 1, ptr %5, align 4
  br label %31

23:                                               ; preds = %16, %9
  %24 = load ptr, ptr %4, align 8, !tbaa !3
  %25 = getelementptr inbounds i8, ptr %24, i64 0
  %26 = load i8, ptr %25, align 1, !tbaa !8
  %27 = zext i8 %26 to i32
  %28 = icmp sge i32 %27, 128
  br i1 %28, label %29, label %30

29:                                               ; preds = %23
  store i32 2, ptr %2, align 4
  store i32 1, ptr %5, align 4
  br label %31

30:                                               ; preds = %23
  store i32 0, ptr %2, align 4
  store i32 1, ptr %5, align 4
  br label %31

31:                                               ; preds = %30, %29, %22
  call void @llvm.lifetime.end.p0(i64 8, ptr %4) #5
  br label %32

32:                                               ; preds = %31, %8
  %33 = load i32, ptr %2, align 4
  ret i32 %33
}