; Function Attrs: mustprogress nofree norecurse nosync nounwind willreturn memory(argmem: read) uwtable
define range(i32 0, 4) i32 @lv_image_src_get_type(ptr noundef readonly %0) local_unnamed_addr #4 {
  %2 = icmp eq ptr %0, null
  br i1 %2, label %8, label %3

3:                                                ; preds = %1
  %4 = load i8, ptr %0, align 1, !tbaa !33
  %or.cond = icmp sgt i8 %4, 31
  br i1 %or.cond, label %8, label %5

5:                                                ; preds = %3
  %6 = lshr i8 %4, 6
  %7 = and i8 %6, 2
  %. = zext nneg i8 %7 to i32
  br label %8

8:                                                ; preds = %3, %5, %1
  %.0 = phi i32 [ 3, %1 ], [ 1, %3 ], [ %., %5 ]
  ret i32 %.0
}